target datalayout = "e-m:e-p270:32:32-p271:32:32-p272:64:64-i64:64-i128:128-f80:128-n8:16:32:64-S128"
target triple = "x86_64-pc-linux-gnu"

%struct.ArchCPU = type { %struct.CPUState, %struct.CPUArchState, %struct.GDBFeature, %struct.GDBFeature, %struct.RISCVCPUConfig, ptr, i32, ptr, ptr, [8 x i8] }
%struct.CPUState = type { %struct.DeviceState, ptr, i32, ptr, i32, i8, i8, ptr, i8, i8, i8, i8, i8, i8, i8, i8, i32, i32, i32, i32, i64, i64, i64, [1 x %struct.__jmp_buf_tag], %struct.QemuMutex, %struct.anon, ptr, i32, i32, ptr, ptr, ptr, ptr, i32, i32, %union.anon, %union.anon.0, %union.anon.1, ptr, ptr, i64, i32, ptr, ptr, ptr, i32, i64, i32, i8, %struct.QemuLockCnt, ptr, i32, i32, i32, i32, i32, ptr, i8, i64, i8, i8, ptr, [0 x i8], %struct.CPUNegativeOffsetState }
%struct.DeviceState = type { %struct.Object, ptr, ptr, i8, i8, i64, i32, i8, ptr, %struct.NamedGPIOListHead, %struct.NamedClockListHead, %struct.BusStateHead, i32, i32, i32, %struct.ResettableState, ptr, %struct.MemReentrancyGuard }
%struct.Object = type { ptr, ptr, ptr, i32, ptr }
%struct.NamedGPIOListHead = type { ptr }
%struct.NamedClockListHead = type { ptr }
%struct.BusStateHead = type { ptr }
%struct.ResettableState = type { i32, i8, i8 }
%struct.MemReentrancyGuard = type { i8 }
%struct.__jmp_buf_tag = type { [8 x i64], i32, %struct.__sigset_t }
%struct.__sigset_t = type { [16 x i64] }
%struct.QemuMutex = type { %union.pthread_mutex_t, i8 }
%union.pthread_mutex_t = type { %struct.__pthread_mutex_s }
%struct.__pthread_mutex_s = type { i32, i32, i32, i32, i32, i16, i16, %struct.__pthread_internal_list }
%struct.__pthread_internal_list = type { ptr, ptr }
%struct.anon = type { ptr, ptr }
%union.anon = type { %struct.QTailQLink }
%struct.QTailQLink = type { ptr, ptr }
%union.anon.0 = type { %struct.QTailQLink }
%union.anon.1 = type { %struct.QTailQLink }
%struct.QemuLockCnt = type { i32 }
%struct.CPUNegativeOffsetState = type { %struct.CPUTLB, ptr, i64, i64, %union.IcountDecr, i8 }
%struct.CPUTLB = type { %struct.CPUTLBCommon, [16 x %struct.CPUTLBDesc], [16 x %struct.CPUTLBDescFast] }
%struct.CPUTLBCommon = type { %struct.QemuSpin, i16, i64, i64, i64 }
%struct.QemuSpin = type { i32 }
%struct.CPUTLBDesc = type { i64, i64, i64, i64, i64, i64, [8 x %union.CPUTLBEntry], [8 x %struct.CPUTLBEntryFull], ptr }
%union.CPUTLBEntry = type { %struct.anon.2 }
%struct.anon.2 = type { i64, i64, i64, i64 }
%struct.CPUTLBEntryFull = type { i64, i64, %struct.MemTxAttrs, i8, i8, i8, [3 x i8], %union.anon.3 }
%struct.MemTxAttrs = type { i32, i8, i8, i16 }
%union.anon.3 = type { %struct.anon.4 }
%struct.anon.4 = type { i8, i8, i8 }
%struct.CPUTLBDescFast = type { i64, ptr }
%union.IcountDecr = type { i32 }
%struct.CPUArchState = type { [32 x i64], [32 x i64], [512 x i64], i64, i64, i64, i64, i64, i8, i64, i64, i64, [32 x i64], i64, %struct.float_status, i64, i64, i64, i64, i64, i32, i32, i32, i32, i64, i64, i8, i64, i64, i64, i32, i64, i64, i64, ptr, ptr, i8, i64, i64, i64, i64, i64, i64, i64, i64, i64 }
%struct.float_status = type { i16, i8, i8, i8, i8, i8, i8, i8, i8, i8, i8, i8, i8, i8, i8, i8 }
%struct.GDBFeature = type { ptr, ptr, ptr, ptr, i32 }
%struct.RISCVCPUConfig = type { i8, i8, i8, i8, i8, i8, i8, i8, i8, i8, i8, i8, i8, i8, i8, i8, i8, i8, i8, i8, i8, i8, i8, i8, i8, i8, i8, i8, i8, i8, i8, i8, i8, i8, i8, i8, i8, i8, i8, i8, i8, i8, i8, i8, i8, i8, i8, i8, i8, i8, i8, i8, i8, i8, i8, i8, i8, i8, i8, i8, i8, i8, i8, i8, i8, i8, i8, i8, i8, i8, i8, i8, i8, i8, i8, i8, i8, i8, i8, i8, i8, i8, i8, i8, i8, i8, i8, i8, i8, i8, i8, i8, i8, i8, i8, i8, i8, i8, i8, i8, i8, i8, i8, i8, i8, i8, i8, i32, i64, i64, i8, i8, i8, i8, i8, i8, i8, i8, i8, i8, i8, i8, i8, i8, i8, i8, i8, i8, i8, i32, i16, i16, i16, i16, i16, i8, i8, i8, i8, i8 }
%struct.RISCVCPUClass = type { %struct.CPUClass, ptr, %struct.ResettablePhases, i32 }
%struct.CPUClass = type { %struct.DeviceClass, ptr, ptr, ptr, ptr, ptr, ptr, ptr, ptr, ptr, ptr, ptr, ptr, ptr, ptr, ptr, ptr, ptr, ptr, ptr, ptr, ptr, i32, i32, i8 }
%struct.DeviceClass = type { %struct.ObjectClass, [1 x i64], ptr, ptr, ptr, i16, i8, i8, ptr, ptr, ptr, ptr, ptr, ptr }
%struct.ObjectClass = type { ptr, ptr, [4 x ptr], [4 x ptr], ptr, ptr }
%struct.ResettablePhases = type { ptr, ptr, ptr }

@.str = private unnamed_addr constant [31 x i8] c"../qemu/target/riscv/gdbstub.c\00", align 1
@__func__.riscv_cpu_gdb_read_register = private unnamed_addr constant [28 x i8] c"riscv_cpu_gdb_read_register\00", align 1
@.str.5 = private unnamed_addr constant [10 x i8] c"riscv-cpu\00", align 1
@.str.6 = private unnamed_addr constant [31 x i8] c"../qemu/target/riscv/cpu-qom.h\00", align 1
@__func__.RISCV_CPU_GET_CLASS = private unnamed_addr constant [20 x i8] c"RISCV_CPU_GET_CLASS\00", align 1
@__func__.RISCV_CPU = private unnamed_addr constant [10 x i8] c"RISCV_CPU\00", align 1

; Function Attrs: inlinehint nounwind sspstrong uwtable
define internal i64 @tswap64(i64 noundef %0) #2 {
  %2 = alloca i64, align 8
  store i64 %0, ptr %2, align 8
  %3 = load i64, ptr %2, align 8
  ret i64 %3
}

; Function Attrs: inlinehint nounwind sspstrong uwtable
define internal i32 @tswap32(i32 noundef %0) #2 {
  %2 = alloca i32, align 4
  store i32 %0, ptr %2, align 4
  %3 = load i32, ptr %2, align 4
  ret i32 %3
}

; Function Attrs: inlinehint nounwind sspstrong uwtable
define internal i32 @gdb_get_reg64(ptr noundef %0, i64 noundef %1) #2 {
  %3 = alloca ptr, align 8
  %4 = alloca i64, align 8
  %5 = alloca i64, align 8
  store ptr %0, ptr %3, align 8
  store i64 %1, ptr %4, align 8
  call void @llvm.lifetime.start.p0(i64 8, ptr %5) #7
  %6 = load i64, ptr %4, align 8
  %7 = call i64 @tswap64(i64 noundef %6)
  store i64 %7, ptr %5, align 8
  %8 = load ptr, ptr %3, align 8
  %9 = call ptr @g_byte_array_append(ptr noundef %8, ptr noundef %5, i32 noundef 8)
  call void @llvm.lifetime.end.p0(i64 8, ptr %5) #7
  ret i32 8
}

; Function Attrs: inlinehint nounwind sspstrong uwtable
define internal i32 @gdb_get_reg32(ptr noundef %0, i32 noundef %1) #2 {
  %3 = alloca ptr, align 8
  %4 = alloca i32, align 4
  %5 = alloca i32, align 4
  store ptr %0, ptr %3, align 8
  store i32 %1, ptr %4, align 4
  call void @llvm.lifetime.start.p0(i64 4, ptr %5) #7
  %6 = load i32, ptr %4, align 4
  %7 = call i32 @tswap32(i32 noundef %6)
  store i32 %7, ptr %5, align 4
  %8 = load ptr, ptr %3, align 8
  %9 = call ptr @g_byte_array_append(ptr noundef %8, ptr noundef %5, i32 noundef 4)
  call void @llvm.lifetime.end.p0(i64 4, ptr %5) #7
  ret i32 4
}

; Function Attrs: inlinehint nounwind sspstrong uwtable
define internal ptr @RISCV_CPU(ptr noundef %0) #2 {
  %2 = alloca ptr, align 8
  store ptr %0, ptr %2, align 8
  %3 = load ptr, ptr %2, align 8
  %4 = call ptr @object_dynamic_cast_assert(ptr noundef %3, ptr noundef @.str.5, ptr noundef @.str.6, i32 noundef 56, ptr noundef @__func__.RISCV_CPU)
  ret ptr %4
}

; Function Attrs: inlinehint nounwind sspstrong uwtable
define internal ptr @RISCV_CPU_GET_CLASS(ptr noundef %0) #2 {
  %2 = alloca ptr, align 8
  store ptr %0, ptr %2, align 8
  %3 = load ptr, ptr %2, align 8
  %4 = call ptr @object_get_class(ptr noundef %3)
  %5 = call ptr @object_class_dynamic_cast_assert(ptr noundef %4, ptr noundef @.str.5, ptr noundef @.str.6, i32 noundef 56, ptr noundef @__func__.RISCV_CPU_GET_CLASS)
  ret ptr %5
}

; Function Attrs: nounwind sspstrong uwtable
define dso_local i32 @riscv_cpu_gdb_read_register(ptr noundef %0, ptr noundef %1, i32 noundef %2) #0 {
  %4 = alloca i32, align 4
  %5 = alloca ptr, align 8
  %6 = alloca ptr, align 8
  %7 = alloca i32, align 4
  %8 = alloca ptr, align 8
  %9 = alloca ptr, align 8
  %10 = alloca ptr, align 8
  %11 = alloca i64, align 8
  %12 = alloca i32, align 4
  store ptr %0, ptr %5, align 8
  store ptr %1, ptr %6, align 8
  store i32 %2, ptr %7, align 4
  call void @llvm.lifetime.start.p0(i64 8, ptr %8) #7
  %13 = load ptr, ptr %5, align 8
  %14 = call ptr @RISCV_CPU_GET_CLASS(ptr noundef %13)
  store ptr %14, ptr %8, align 8
  call void @llvm.lifetime.start.p0(i64 8, ptr %9) #7
  %15 = load ptr, ptr %5, align 8
  %16 = call ptr @RISCV_CPU(ptr noundef %15)
  store ptr %16, ptr %9, align 8
  call void @llvm.lifetime.start.p0(i64 8, ptr %10) #7
  %17 = load ptr, ptr %9, align 8
  %18 = getelementptr inbounds nuw %struct.ArchCPU, ptr %17, i32 0, i32 1
  store ptr %18, ptr %10, align 8
  call void @llvm.lifetime.start.p0(i64 8, ptr %11) #7
  store i64 0, ptr %11, align 8, !annotation !4
  %19 = load i32, ptr %7, align 4
  %20 = icmp slt i32 %19, 32
  br i1 %20, label %21, label %28

21:                                               ; preds = %3
  %22 = load ptr, ptr %10, align 8
  %23 = getelementptr inbounds nuw %struct.CPUArchState, ptr %22, i32 0, i32 0
  %24 = load i32, ptr %7, align 4
  %25 = sext i32 %24 to i64
  %26 = getelementptr inbounds [32 x i64], ptr %23, i64 0, i64 %25
  %27 = load i64, ptr %26, align 8
  store i64 %27, ptr %11, align 8
  br label %37

28:                                               ; preds = %3
  %29 = load i32, ptr %7, align 4
  %30 = icmp eq i32 %29, 32
  br i1 %30, label %31, label %35

31:                                               ; preds = %28
  %32 = load ptr, ptr %10, align 8
  %33 = getelementptr inbounds nuw %struct.CPUArchState, ptr %32, i32 0, i32 9
  %34 = load i64, ptr %33, align 16
  store i64 %34, ptr %11, align 8
  br label %36

35:                                               ; preds = %28
  store i32 0, ptr %4, align 4
  store i32 1, ptr %12, align 4
  br label %55

36:                                               ; preds = %31
  br label %37

37:                                               ; preds = %36, %21
  %38 = load ptr, ptr %8, align 8
  %39 = getelementptr inbounds nuw %struct.RISCVCPUClass, ptr %38, i32 0, i32 3
  %40 = load i32, ptr %39, align 8
  switch i32 %40, label %50 [
    i32 1, label %41
    i32 2, label %46
    i32 3, label %46
  ]

41:                                               ; preds = %37
  %42 = load ptr, ptr %6, align 8
  %43 = load i64, ptr %11, align 8
  %44 = trunc i64 %43 to i32
  %45 = call i32 @gdb_get_reg32(ptr noundef %42, i32 noundef %44)
  store i32 %45, ptr %4, align 4
  store i32 1, ptr %12, align 4
  br label %55

46:                                               ; preds = %37, %37
  %47 = load ptr, ptr %6, align 8
  %48 = load i64, ptr %11, align 8
  %49 = call i32 @gdb_get_reg64(ptr noundef %47, i64 noundef %48)
  store i32 %49, ptr %4, align 4
  store i32 1, ptr %12, align 4
  br label %55

50:                                               ; preds = %37
  br label %51

51:                                               ; preds = %50
  call void @g_assertion_message_expr(ptr noundef null, ptr noundef @.str, i32 noundef 72, ptr noundef @__func__.riscv_cpu_gdb_read_register, ptr noundef null) #8
  unreachable

52:                                               ; No predecessors!
  br label %53

53:                                               ; preds = %52
  br label %54

54:                                               ; preds = %53
  store i32 0, ptr %4, align 4
  store i32 1, ptr %12, align 4
  br label %55

55:                                               ; preds = %54, %46, %41, %35
  call void @llvm.lifetime.end.p0(i64 8, ptr %11) #7
  call void @llvm.lifetime.end.p0(i64 8, ptr %10) #7
  call void @llvm.lifetime.end.p0(i64 8, ptr %9) #7
  call void @llvm.lifetime.end.p0(i64 8, ptr %8) #7
  %56 = load i32, ptr %4, align 4
  ret i32 %56
}