; Function Attrs: nounwind sspstrong uwtable
define dso_local range(i32 0, 9) i32 @riscv_cpu_gdb_read_register(ptr noundef %0, ptr noundef %1, i32 noundef %2) local_unnamed_addr #0 {
  %4 = alloca i64, align 8
  %5 = alloca i32, align 4
  %6 = tail call ptr @object_get_class(ptr noundef %0) #7
  %7 = tail call ptr @object_class_dynamic_cast_assert(ptr noundef %6, ptr noundef nonnull @.str.5, ptr noundef nonnull @.str.6, i32 noundef 56, ptr noundef nonnull @__func__.RISCV_CPU_GET_CLASS) #7
  %8 = tail call ptr @object_dynamic_cast_assert(ptr noundef %0, ptr noundef nonnull @.str.5, ptr noundef nonnull @.str.6, i32 noundef 56, ptr noundef nonnull @__func__.RISCV_CPU) #7
  %9 = icmp slt i32 %2, 32
  br i1 %9, label %10, label %14

10:                                               ; preds = %3
  %11 = getelementptr inbounds nuw i8, ptr %8, i64 11200
  %12 = sext i32 %2 to i64
  %13 = getelementptr inbounds [32 x i64], ptr %11, i64 0, i64 %12
  br label %18

14:                                               ; preds = %3
  %15 = icmp eq i32 %2, 32
  br i1 %15, label %16, label %27

16:                                               ; preds = %14
  %17 = getelementptr inbounds nuw i8, ptr %8, i64 15856
  br label %18

18:                                               ; preds = %16, %10
  %.0.in = phi ptr [ %13, %10 ], [ %17, %16 ]
  %.0 = load i64, ptr %.0.in, align 8
  %19 = getelementptr inbounds nuw i8, ptr %7, i64 400
  %20 = load i32, ptr %19, align 8
  switch i32 %20, label %26 [
    i32 1, label %21
    i32 2, label %24
    i32 3, label %24
  ]

21:                                               ; preds = %18
  %22 = trunc i64 %.0 to i32
  call void @llvm.lifetime.start.p0(i64 4, ptr nonnull %5) #7
  store i32 %22, ptr %5, align 4
  %23 = call ptr @g_byte_array_append(ptr noundef %1, ptr noundef nonnull %5, i32 noundef 4) #7
  call void @llvm.lifetime.end.p0(i64 4, ptr nonnull %5) #7
  br label %27

24:                                               ; preds = %18, %18
  call void @llvm.lifetime.start.p0(i64 8, ptr nonnull %4) #7
  store i64 %.0, ptr %4, align 8
  %25 = call ptr @g_byte_array_append(ptr noundef %1, ptr noundef nonnull %4, i32 noundef 8) #7
  call void @llvm.lifetime.end.p0(i64 8, ptr nonnull %4) #7
  br label %27

26:                                               ; preds = %18
  tail call void @g_assertion_message_expr(ptr noundef null, ptr noundef nonnull @.str, i32 noundef 72, ptr noundef nonnull @__func__.riscv_cpu_gdb_read_register, ptr noundef null) #8
  unreachable

27:                                               ; preds = %14, %24, %21
  %.013 = phi i32 [ 8, %24 ], [ 4, %21 ], [ 0, %14 ]
  ret i32 %.013
}